; Function Attrs: mustprogress uwtable
define noundef zeroext i1 @_ZN9grpc_core11ThreadQuota7ReserveEm(ptr noundef nonnull align 8 dereferenceable(40) %0, i64 noundef %1) local_unnamed_addr #3 align 2 personality ptr @__gxx_personality_v0 {
  %3 = getelementptr inbounds nuw i8, ptr %0, i64 16
  tail call void @_ZN4absl12lts_202407225Mutex4LockEv(ptr noundef nonnull align 8 dereferenceable(8) %3)
  %4 = getelementptr inbounds nuw i8, ptr %0, i64 24
  %5 = load i64, ptr %4, align 8, !tbaa !17
  %6 = add i64 %5, %1
  %7 = getelementptr inbounds nuw i8, ptr %0, i64 32
  %8 = load i64, ptr %7, align 8, !tbaa !10
  %9 = icmp ule i64 %6, %8
  br i1 %9, label %10, label %11

10:                                               ; preds = %2
  store i64 %6, ptr %4, align 8, !tbaa !17
  br label %11

11:                                               ; preds = %2, %10
  invoke void @_ZN4absl12lts_202407225Mutex6UnlockEv(ptr noundef nonnull align 8 dereferenceable(8) %3)
          to label %_ZN4absl12lts_202407229MutexLockD2Ev.exit unwind label %12

12:                                               ; preds = %11
  %13 = landingpad { ptr, i32 }
          catch ptr null
  %14 = extractvalue { ptr, i32 } %13, 0
  tail call void @__clang_call_terminate(ptr %14) #13
  unreachable

_ZN4absl12lts_202407229MutexLockD2Ev.exit:        ; preds = %11
  ret i1 %9
}